target datalayout = "e-m:e-p270:32:32-p271:32:32-p272:64:64-i64:64-i128:128-f80:128-n8:16:32:64-S128"
target triple = "x86_64-pc-linux-gnu"

%"class.fmt::v9::basic_string_view" = type { ptr, i64 }
%"class.std::__cxx11::basic_string" = type { %"struct.std::__cxx11::basic_string<char>::_Alloc_hider", i64, %union.anon.0 }
%"struct.std::__cxx11::basic_string<char>::_Alloc_hider" = type { ptr }
%union.anon.0 = type { i64, [8 x i8] }
%"class.__gnu_cxx::__normal_iterator.44" = type { ptr }
%"class.LIEF::ELF::DynamicEntryArray" = type { %"class.LIEF::ELF::DynamicEntry", %"class.std::vector.39" }
%"class.LIEF::ELF::DynamicEntry" = type { %"class.LIEF::Object", i64, i64 }
%"class.LIEF::Object" = type { ptr }
%"class.std::vector.39" = type { %"struct.std::_Vector_base.40" }
%"struct.std::_Vector_base.40" = type { %"struct.std::_Vector_base<unsigned long, std::allocator<unsigned long>>::_Vector_impl" }
%"struct.std::_Vector_base<unsigned long, std::allocator<unsigned long>>::_Vector_impl" = type { %"struct.std::_Vector_base<unsigned long, std::allocator<unsigned long>>::_Vector_impl_data" }
%"struct.std::_Vector_base<unsigned long, std::allocator<unsigned long>>::_Vector_impl_data" = type { ptr, ptr, ptr }
%"class.fmt::v9::basic_format_string" = type { %"class.fmt::v9::basic_string_view" }
%"class.fmt::v9::basic_format_args" = type { i64, %union.anon.445 }
%union.anon.445 = type { ptr }
%"class.fmt::v9::format_arg_store.1076" = type { %"struct.fmt::v9::detail::arg_data" }
%"struct.fmt::v9::detail::arg_data" = type { [1 x %"class.fmt::v9::detail::value"] }
%"class.fmt::v9::detail::value" = type { %union.anon.446 }
%union.anon.446 = type { i128 }
%"struct.fmt::v9::join_view" = type { %"class.__gnu_cxx::__normal_iterator.44", %"class.__gnu_cxx::__normal_iterator.44", %"class.fmt::v9::basic_string_view" }
%"struct.fmt::v9::detail::arg_mapper" = type { i8 }
%"struct.fmt::v9::detail::custom_value" = type { ptr, ptr }

@.str.2 = private unnamed_addr constant [9 x i8] c"0x{:04x}\00", align 1
@.str.3 = private unnamed_addr constant [3 x i8] c", \00", align 1

; Function Attrs: mustprogress nounwind uwtable
define linkonce_odr hidden void @_ZN9__gnu_cxx17__normal_iteratorIPKmSt6vectorImSaImEEEC2ERKS2_(ptr noundef nonnull align 8 dereferenceable(8) %0, ptr noundef nonnull align 8 dereferenceable(8) %1) unnamed_addr #1 comdat align 2 {
  %3 = alloca ptr, align 8
  %4 = alloca ptr, align 8
  store ptr %0, ptr %3, align 8
  store ptr %1, ptr %4, align 8
  %5 = load ptr, ptr %3, align 8
  %6 = getelementptr inbounds %"class.__gnu_cxx::__normal_iterator.44", ptr %5, i32 0, i32 0
  %7 = load ptr, ptr %4, align 8
  %8 = load ptr, ptr %7, align 8
  store ptr %8, ptr %6, align 8
  ret void
}

; Function Attrs: mustprogress nounwind uwtable
define linkonce_odr hidden void @_ZN3fmt2v99join_viewIN9__gnu_cxx17__normal_iteratorIPKmSt6vectorImSaImEEEES9_cEC2ES9_S9_NS0_17basic_string_viewIcEE(ptr noundef nonnull align 8 dereferenceable(32) %0, ptr %1, ptr %2, ptr %3, i64 %4) unnamed_addr #1 comdat align 2 {
  %6 = alloca %"class.__gnu_cxx::__normal_iterator.44", align 8
  %7 = alloca %"class.__gnu_cxx::__normal_iterator.44", align 8
  %8 = alloca %"class.fmt::v9::basic_string_view", align 8
  %9 = alloca ptr, align 8
  %10 = getelementptr inbounds %"class.__gnu_cxx::__normal_iterator.44", ptr %6, i32 0, i32 0
  store ptr %1, ptr %10, align 8
  %11 = getelementptr inbounds %"class.__gnu_cxx::__normal_iterator.44", ptr %7, i32 0, i32 0
  store ptr %2, ptr %11, align 8
  %12 = getelementptr inbounds { ptr, i64 }, ptr %8, i32 0, i32 0
  store ptr %3, ptr %12, align 8
  %13 = getelementptr inbounds { ptr, i64 }, ptr %8, i32 0, i32 1
  store i64 %4, ptr %13, align 8
  store ptr %0, ptr %9, align 8
  %14 = load ptr, ptr %9, align 8
  %15 = getelementptr inbounds %"struct.fmt::v9::join_view", ptr %14, i32 0, i32 0
  call void @llvm.memcpy.p0.p0.i64(ptr align 8 %15, ptr align 8 %6, i64 8, i1 false)
  %16 = getelementptr inbounds %"struct.fmt::v9::join_view", ptr %14, i32 0, i32 1
  call void @llvm.memcpy.p0.p0.i64(ptr align 8 %16, ptr align 8 %7, i64 8, i1 false)
  %17 = getelementptr inbounds %"struct.fmt::v9::join_view", ptr %14, i32 0, i32 2
  call void @llvm.memcpy.p0.p0.i64(ptr align 8 %17, ptr align 8 %8, i64 16, i1 false)
  ret void
}

; Function Attrs: mustprogress nounwind uwtable
define linkonce_odr hidden ptr @_ZNKSt6vectorImSaImEE3endEv(ptr noundef nonnull align 8 dereferenceable(24) %0) #1 comdat align 2 {
  %2 = alloca %"class.__gnu_cxx::__normal_iterator.44", align 8
  %3 = alloca ptr, align 8
  store ptr %0, ptr %3, align 8
  %4 = load ptr, ptr %3, align 8
  %5 = getelementptr inbounds %"struct.std::_Vector_base.40", ptr %4, i32 0, i32 0
  %6 = getelementptr inbounds %"struct.std::_Vector_base<unsigned long, std::allocator<unsigned long>>::_Vector_impl_data", ptr %5, i32 0, i32 1
  call void @_ZN9__gnu_cxx17__normal_iteratorIPKmSt6vectorImSaImEEEC2ERKS2_(ptr noundef nonnull align 8 dereferenceable(8) %2, ptr noundef nonnull align 8 dereferenceable(8) %6) #16
  %7 = getelementptr inbounds %"class.__gnu_cxx::__normal_iterator.44", ptr %2, i32 0, i32 0
  %8 = load ptr, ptr %7, align 8
  ret ptr %8
}

; Function Attrs: mustprogress nounwind uwtable
define linkonce_odr hidden ptr @_ZNKSt6vectorImSaImEE5beginEv(ptr noundef nonnull align 8 dereferenceable(24) %0) #1 comdat align 2 {
  %2 = alloca %"class.__gnu_cxx::__normal_iterator.44", align 8
  %3 = alloca ptr, align 8
  store ptr %0, ptr %3, align 8
  %4 = load ptr, ptr %3, align 8
  %5 = getelementptr inbounds %"struct.std::_Vector_base.40", ptr %4, i32 0, i32 0
  %6 = getelementptr inbounds %"struct.std::_Vector_base<unsigned long, std::allocator<unsigned long>>::_Vector_impl_data", ptr %5, i32 0, i32 0
  call void @_ZN9__gnu_cxx17__normal_iteratorIPKmSt6vectorImSaImEEEC2ERKS2_(ptr noundef nonnull align 8 dereferenceable(8) %2, ptr noundef nonnull align 8 dereferenceable(8) %6) #16
  %7 = getelementptr inbounds %"class.__gnu_cxx::__normal_iterator.44", ptr %2, i32 0, i32 0
  %8 = load ptr, ptr %7, align 8
  ret ptr %8
}

; Function Attrs: mustprogress uwtable
define linkonce_odr hidden void @_ZN3fmt2v94joinIN9__gnu_cxx17__normal_iteratorIPKmSt6vectorImSaImEEEES9_EENS0_9join_viewIT_T0_cEESB_SC_NS0_17basic_string_viewIcEE(ptr dead_on_unwind noalias writable sret(%"struct.fmt::v9::join_view") align 8 %0, ptr %1, ptr %2, ptr %3, i64 %4) #3 comdat {
  %6 = alloca %"class.__gnu_cxx::__normal_iterator.44", align 8
  %7 = alloca %"class.__gnu_cxx::__normal_iterator.44", align 8
  %8 = alloca %"class.fmt::v9::basic_string_view", align 8
  %9 = alloca %"class.__gnu_cxx::__normal_iterator.44", align 8
  %10 = alloca %"class.__gnu_cxx::__normal_iterator.44", align 8
  %11 = alloca %"class.fmt::v9::basic_string_view", align 8
  %12 = getelementptr inbounds %"class.__gnu_cxx::__normal_iterator.44", ptr %6, i32 0, i32 0
  store ptr %1, ptr %12, align 8
  %13 = getelementptr inbounds %"class.__gnu_cxx::__normal_iterator.44", ptr %7, i32 0, i32 0
  store ptr %2, ptr %13, align 8
  %14 = getelementptr inbounds { ptr, i64 }, ptr %8, i32 0, i32 0
  store ptr %3, ptr %14, align 8
  %15 = getelementptr inbounds { ptr, i64 }, ptr %8, i32 0, i32 1
  store i64 %4, ptr %15, align 8
  call void @llvm.memcpy.p0.p0.i64(ptr align 8 %9, ptr align 8 %6, i64 8, i1 false)
  call void @llvm.memcpy.p0.p0.i64(ptr align 8 %10, ptr align 8 %7, i64 8, i1 false)
  call void @llvm.memcpy.p0.p0.i64(ptr align 8 %11, ptr align 8 %8, i64 16, i1 false)
  %16 = getelementptr inbounds %"class.__gnu_cxx::__normal_iterator.44", ptr %9, i32 0, i32 0
  %17 = load ptr, ptr %16, align 8
  %18 = getelementptr inbounds %"class.__gnu_cxx::__normal_iterator.44", ptr %10, i32 0, i32 0
  %19 = load ptr, ptr %18, align 8
  %20 = getelementptr inbounds { ptr, i64 }, ptr %11, i32 0, i32 0
  %21 = load ptr, ptr %20, align 8
  %22 = getelementptr inbounds { ptr, i64 }, ptr %11, i32 0, i32 1
  %23 = load i64, ptr %22, align 8
  call void @_ZN3fmt2v99join_viewIN9__gnu_cxx17__normal_iteratorIPKmSt6vectorImSaImEEEES9_cEC2ES9_S9_NS0_17basic_string_viewIcEE(ptr noundef nonnull align 8 dereferenceable(32) %0, ptr %17, ptr %19, ptr %21, i64 %23)
  ret void
}

; Function Attrs: mustprogress nounwind uwtable
define linkonce_odr ptr @_ZSt3endISt6vectorImSaImEEEDTcldtfp_3endEERKT_(ptr noundef nonnull align 8 dereferenceable(24) %0) #1 comdat {
  %2 = alloca %"class.__gnu_cxx::__normal_iterator.44", align 8
  %3 = alloca ptr, align 8
  store ptr %0, ptr %3, align 8
  %4 = load ptr, ptr %3, align 8
  %5 = call ptr @_ZNKSt6vectorImSaImEE3endEv(ptr noundef nonnull align 8 dereferenceable(24) %4) #16
  %6 = getelementptr inbounds %"class.__gnu_cxx::__normal_iterator.44", ptr %2, i32 0, i32 0
  store ptr %5, ptr %6, align 8
  %7 = getelementptr inbounds %"class.__gnu_cxx::__normal_iterator.44", ptr %2, i32 0, i32 0
  %8 = load ptr, ptr %7, align 8
  ret ptr %8
}

; Function Attrs: mustprogress nounwind uwtable
define linkonce_odr ptr @_ZSt5beginISt6vectorImSaImEEEDTcldtfp_5beginEERKT_(ptr noundef nonnull align 8 dereferenceable(24) %0) #1 comdat {
  %2 = alloca %"class.__gnu_cxx::__normal_iterator.44", align 8
  %3 = alloca ptr, align 8
  store ptr %0, ptr %3, align 8
  %4 = load ptr, ptr %3, align 8
  %5 = call ptr @_ZNKSt6vectorImSaImEE5beginEv(ptr noundef nonnull align 8 dereferenceable(24) %4) #16
  %6 = getelementptr inbounds %"class.__gnu_cxx::__normal_iterator.44", ptr %2, i32 0, i32 0
  store ptr %5, ptr %6, align 8
  %7 = getelementptr inbounds %"class.__gnu_cxx::__normal_iterator.44", ptr %2, i32 0, i32 0
  %8 = load ptr, ptr %7, align 8
  ret ptr %8
}

; Function Attrs: mustprogress uwtable
define linkonce_odr hidden { i64, i64 } @_ZN3fmt2v916make_format_argsINS0_20basic_format_contextINS0_8appenderEcEEJRNS0_9join_viewIN9__gnu_cxx17__normal_iteratorIPKmSt6vectorImSaImEEEESD_cEEEEENS0_16format_arg_storeIT_JDpNSt9remove_cvINSt16remove_referenceIT0_E4typeEE4typeEEEEDpOSK_(ptr noundef nonnull align 8 dereferenceable(32) %0) #3 comdat {
  %2 = alloca ptr, align 8
  %3 = alloca ptr, align 8
  %4 = alloca ptr, align 8
  %5 = alloca ptr, align 8
  %6 = alloca ptr, align 8
  %7 = alloca ptr, align 8
  %8 = alloca %"class.fmt::v9::detail::value", align 16
  %9 = alloca ptr, align 8
  %10 = alloca ptr, align 8
  %11 = alloca %"struct.fmt::v9::detail::arg_mapper", align 1
  %12 = alloca i8, align 1
  %13 = alloca i8, align 1
  %14 = alloca i8, align 1
  %15 = alloca i8, align 1
  %16 = alloca ptr, align 8
  %17 = alloca i32, align 4
  %18 = alloca i32, align 4
  %19 = alloca ptr, align 8
  %20 = alloca %"class.fmt::v9::detail::value", align 16
  %21 = alloca ptr, align 8
  %22 = alloca ptr, align 8
  %23 = alloca ptr, align 8
  %24 = alloca ptr, align 8
  %25 = alloca ptr, align 8
  %26 = alloca ptr, align 8
  %27 = alloca %"class.fmt::v9::detail::value", align 16
  %28 = alloca %"class.fmt::v9::format_arg_store.1076", align 16
  %29 = alloca ptr, align 8
  store ptr %0, ptr %29, align 8
  %30 = load ptr, ptr %29, align 8
  store ptr %28, ptr %25, align 8
  store ptr %30, ptr %26, align 8
  %31 = load ptr, ptr %25, align 8
  %32 = load ptr, ptr %26, align 8
  store ptr %32, ptr %21, align 8
  %33 = load ptr, ptr %21, align 8
  store ptr %33, ptr %9, align 8
  %34 = load ptr, ptr %9, align 8
  store ptr %11, ptr %6, align 8
  store ptr %34, ptr %7, align 8
  %35 = load ptr, ptr %6, align 8
  %36 = load ptr, ptr %7, align 8
  store ptr %35, ptr %2, align 8
  store ptr %36, ptr %3, align 8
  %37 = load ptr, ptr %3, align 8
  store ptr %37, ptr %10, align 8
  store i8 1, ptr %12, align 1
  store i8 1, ptr %13, align 1
  store i8 1, ptr %14, align 1
  store i8 1, ptr %15, align 1
  %38 = load ptr, ptr %10, align 8
  store ptr %8, ptr %4, align 8
  store ptr %38, ptr %5, align 8
  %39 = load ptr, ptr %4, align 8
  %40 = load ptr, ptr %5, align 8
  store ptr %40, ptr %39, align 16
  %41 = getelementptr inbounds %"struct.fmt::v9::detail::custom_value", ptr %39, i32 0, i32 1
  store ptr @_ZN3fmt2v96detail5valueINS0_20basic_format_contextINS0_8appenderEcEEE17format_custom_argINS0_9join_viewIN9__gnu_cxx17__normal_iteratorIPKmSt6vectorImSaImEEEESG_cEENS0_9formatterISH_cvEEEEvPvRNS0_26basic_format_parse_contextIcNS1_13error_handlerEEERS5_, ptr %41, align 8
  %42 = load { i64, i64 }, ptr %8, align 16
  %43 = extractvalue { i64, i64 } %42, 0
  store i64 %43, ptr %20, align 16
  %44 = getelementptr inbounds { i64, i64 }, ptr %20, i32 0, i32 1
  %45 = extractvalue { i64, i64 } %42, 1
  store i64 %45, ptr %44, align 8
  %46 = load { i64, i64 }, ptr %20, align 16
  %47 = extractvalue { i64, i64 } %46, 0
  store i64 %47, ptr %27, align 16
  %48 = getelementptr inbounds { i64, i64 }, ptr %27, i32 0, i32 1
  %49 = extractvalue { i64, i64 } %46, 1
  store i64 %49, ptr %48, align 8
  store ptr %31, ptr %23, align 8
  store ptr %27, ptr %24, align 8
  %50 = load ptr, ptr %23, align 8
  %51 = load ptr, ptr %24, align 8
  call void @llvm.memcpy.p0.p0.i64(ptr align 16 %50, ptr align 16 %51, i64 16, i1 false)
  store ptr %31, ptr %22, align 8
  %52 = load ptr, ptr %26, align 8
  store ptr null, ptr %16, align 8
  store i32 0, ptr %17, align 4
  store i32 0, ptr %18, align 4
  store ptr %52, ptr %19, align 8
  %53 = getelementptr inbounds %"class.fmt::v9::format_arg_store.1076", ptr %28, i32 0, i32 0
  %54 = getelementptr inbounds %"struct.fmt::v9::detail::arg_data", ptr %53, i32 0, i32 0
  %55 = load { i64, i64 }, ptr %54, align 16
  ret { i64, i64 } %55
}

; Function Attrs: mustprogress uwtable
define linkonce_odr hidden void @_ZN3fmt2v94joinIRKSt6vectorImSaImEEEENS0_9join_viewIDTclsr3stdE5beginclsr3stdE7declvalIRT_EEEEDTclsr3stdE3endclsr3stdE7declvalIS9_EEEEcEEOS8_NS0_17basic_string_viewIcEE(ptr dead_on_unwind noalias writable sret(%"struct.fmt::v9::join_view") align 8 %0, ptr noundef nonnull align 8 dereferenceable(24) %1, ptr %2, i64 %3) #3 comdat {
  %5 = alloca %"class.fmt::v9::basic_string_view", align 8
  %6 = alloca ptr, align 8
  %7 = alloca %"class.__gnu_cxx::__normal_iterator.44", align 8
  %8 = alloca %"class.__gnu_cxx::__normal_iterator.44", align 8
  %9 = alloca %"class.fmt::v9::basic_string_view", align 8
  %10 = getelementptr inbounds { ptr, i64 }, ptr %5, i32 0, i32 0
  store ptr %2, ptr %10, align 8
  %11 = getelementptr inbounds { ptr, i64 }, ptr %5, i32 0, i32 1
  store i64 %3, ptr %11, align 8
  store ptr %1, ptr %6, align 8
  %12 = load ptr, ptr %6, align 8
  %13 = call ptr @_ZSt5beginISt6vectorImSaImEEEDTcldtfp_5beginEERKT_(ptr noundef nonnull align 8 dereferenceable(24) %12)
  %14 = getelementptr inbounds %"class.__gnu_cxx::__normal_iterator.44", ptr %7, i32 0, i32 0
  store ptr %13, ptr %14, align 8
  %15 = load ptr, ptr %6, align 8
  %16 = call ptr @_ZSt3endISt6vectorImSaImEEEDTcldtfp_3endEERKT_(ptr noundef nonnull align 8 dereferenceable(24) %15)
  %17 = getelementptr inbounds %"class.__gnu_cxx::__normal_iterator.44", ptr %8, i32 0, i32 0
  store ptr %16, ptr %17, align 8
  call void @llvm.memcpy.p0.p0.i64(ptr align 8 %9, ptr align 8 %5, i64 16, i1 false)
  %18 = getelementptr inbounds %"class.__gnu_cxx::__normal_iterator.44", ptr %7, i32 0, i32 0
  %19 = load ptr, ptr %18, align 8
  %20 = getelementptr inbounds %"class.__gnu_cxx::__normal_iterator.44", ptr %8, i32 0, i32 0
  %21 = load ptr, ptr %20, align 8
  %22 = getelementptr inbounds { ptr, i64 }, ptr %9, i32 0, i32 0
  %23 = load ptr, ptr %22, align 8
  %24 = getelementptr inbounds { ptr, i64 }, ptr %9, i32 0, i32 1
  %25 = load i64, ptr %24, align 8
  call void @_ZN3fmt2v94joinIN9__gnu_cxx17__normal_iteratorIPKmSt6vectorImSaImEEEES9_EENS0_9join_viewIT_T0_cEESB_SC_NS0_17basic_string_viewIcEE(ptr dead_on_unwind writable sret(%"struct.fmt::v9::join_view") align 8 %0, ptr %19, ptr %21, ptr %23, i64 %25)
  ret void
}

; Function Attrs: mustprogress nounwind uwtable
define linkonce_odr hidden noundef i64 @_ZNSt11char_traitsIcE6lengthEPKc(ptr noundef %0) #1 comdat align 2 {
  %2 = alloca ptr, align 8
  store ptr %0, ptr %2, align 8
  %3 = load ptr, ptr %2, align 8
  %4 = call i64 @strlen(ptr noundef %3) #16
  ret i64 %4
}

; Function Attrs: mustprogress nounwind uwtable
define linkonce_odr hidden noundef nonnull align 8 dereferenceable(24) ptr @_ZNK4LIEF3ELF17DynamicEntryArray5arrayEv(ptr noundef nonnull align 8 dereferenceable(48) %0) #1 comdat align 2 {
  %2 = alloca ptr, align 8
  store ptr %0, ptr %2, align 8
  %3 = load ptr, ptr %2, align 8
  %4 = getelementptr inbounds %"class.LIEF::ELF::DynamicEntryArray", ptr %3, i32 0, i32 1
  ret ptr %4
}

; Function Attrs: mustprogress uwtable
define noundef nonnull align 8 dereferenceable(8) ptr @_ZNK4LIEF3ELF17DynamicEntryArray5printERSo(ptr noundef nonnull align 8 dereferenceable(48) %0, ptr noundef nonnull align 8 dereferenceable(8) %1) unnamed_addr #3 align 2 personality ptr @__gxx_personality_v0 {
  %3 = alloca ptr, align 8
  %4 = alloca ptr, align 8
  %5 = alloca i64, align 8
  %6 = alloca ptr, align 8
  %7 = alloca ptr, align 8
  %8 = alloca ptr, align 8
  %9 = alloca ptr, align 8
  %10 = alloca %"class.fmt::v9::basic_string_view", align 8
  %11 = alloca ptr, align 8
  %12 = alloca ptr, align 8
  %13 = alloca ptr, align 8
  %14 = alloca ptr, align 8
  %15 = alloca ptr, align 8
  %16 = alloca ptr, align 8
  %17 = alloca ptr, align 8
  %18 = alloca ptr, align 8
  %19 = alloca %"class.fmt::v9::basic_format_string", align 8
  %20 = alloca ptr, align 8
  %21 = alloca %"class.fmt::v9::basic_string_view", align 8
  %22 = alloca %"class.fmt::v9::basic_format_args", align 8
  %23 = alloca %"class.fmt::v9::format_arg_store.1076", align 16
  %24 = alloca ptr, align 8
  %25 = alloca ptr, align 8
  %26 = alloca ptr, align 8
  %27 = alloca %"class.std::__cxx11::basic_string", align 8
  %28 = alloca %"class.fmt::v9::basic_format_string", align 8
  %29 = alloca %"struct.fmt::v9::join_view", align 8
  %30 = alloca %"class.fmt::v9::basic_string_view", align 8
  %31 = alloca ptr, align 8
  %32 = alloca i32, align 4
  store ptr %0, ptr %24, align 8
  store ptr %1, ptr %25, align 8
  %33 = load ptr, ptr %24, align 8
  %34 = call noundef nonnull align 8 dereferenceable(24) ptr @_ZNK4LIEF3ELF17DynamicEntryArray5arrayEv(ptr noundef nonnull align 8 dereferenceable(48) %33)
  store ptr %34, ptr %26, align 8
  %35 = load ptr, ptr %25, align 8
  %36 = call noundef nonnull align 8 dereferenceable(8) ptr @_ZNK4LIEF3ELF12DynamicEntry5printERSo(ptr noundef nonnull align 8 dereferenceable(24) %33, ptr noundef nonnull align 8 dereferenceable(8) %35)
  %37 = load ptr, ptr %25, align 8
  %38 = call noundef nonnull align 8 dereferenceable(8) ptr @_ZStlsISt11char_traitsIcEERSt13basic_ostreamIcT_ES5_c(ptr noundef nonnull align 8 dereferenceable(8) %37, i8 noundef signext 91)
  store ptr %28, ptr %16, align 8
  store ptr @.str.2, ptr %17, align 8
  %39 = load ptr, ptr %16, align 8
  %40 = load ptr, ptr %17, align 8
  store ptr %39, ptr %14, align 8
  store ptr %40, ptr %15, align 8
  %41 = load ptr, ptr %14, align 8
  %42 = load ptr, ptr %15, align 8
  store ptr %42, ptr %41, align 8
  %43 = getelementptr inbounds %"class.fmt::v9::basic_string_view", ptr %41, i32 0, i32 1
  %44 = load ptr, ptr %15, align 8
  %45 = call noundef i64 @_ZNSt11char_traitsIcE6lengthEPKc(ptr noundef %44)
  store i64 %45, ptr %43, align 8
  %46 = load ptr, ptr %17, align 8
  store ptr %46, ptr %3, align 8
  %47 = load ptr, ptr %26, align 8
  store ptr %30, ptr %12, align 8
  store ptr @.str.3, ptr %13, align 8
  %48 = load ptr, ptr %12, align 8
  %49 = load ptr, ptr %13, align 8
  store ptr %49, ptr %48, align 8
  %50 = getelementptr inbounds %"class.fmt::v9::basic_string_view", ptr %48, i32 0, i32 1
  %51 = load ptr, ptr %13, align 8
  %52 = call noundef i64 @_ZNSt11char_traitsIcE6lengthEPKc(ptr noundef %51)
  store i64 %52, ptr %50, align 8
  %53 = getelementptr inbounds { ptr, i64 }, ptr %30, i32 0, i32 0
  %54 = load ptr, ptr %53, align 8
  %55 = getelementptr inbounds { ptr, i64 }, ptr %30, i32 0, i32 1
  %56 = load i64, ptr %55, align 8
  call void @_ZN3fmt2v94joinIRKSt6vectorImSaImEEEENS0_9join_viewIDTclsr3stdE5beginclsr3stdE7declvalIRT_EEEEDTclsr3stdE3endclsr3stdE7declvalIS9_EEEEcEEOS8_NS0_17basic_string_viewIcEE(ptr dead_on_unwind writable sret(%"struct.fmt::v9::join_view") align 8 %29, ptr noundef nonnull align 8 dereferenceable(24) %47, ptr %54, i64 %56)
  %57 = getelementptr inbounds { ptr, i64 }, ptr %28, i32 0, i32 0
  %58 = load ptr, ptr %57, align 8
  %59 = getelementptr inbounds { ptr, i64 }, ptr %28, i32 0, i32 1
  %60 = load i64, ptr %59, align 8
  call void @llvm.experimental.noalias.scope.decl(metadata !4)
  store ptr %27, ptr %18, align 8, !noalias !4
  store ptr %58, ptr %19, align 8, !noalias !4
  %61 = getelementptr inbounds { ptr, i64 }, ptr %19, i32 0, i32 1
  store i64 %60, ptr %61, align 8, !noalias !4
  store ptr %29, ptr %20, align 8, !noalias !4
  store ptr %19, ptr %11, align 8
  %62 = load ptr, ptr %11, align 8
  call void @llvm.memcpy.p0.p0.i64(ptr align 8 %10, ptr align 8 %62, i64 16, i1 false)
  %63 = load { ptr, i64 }, ptr %10, align 8
  %64 = extractvalue { ptr, i64 } %63, 0
  store ptr %64, ptr %21, align 8, !noalias !4
  %65 = getelementptr inbounds { ptr, i64 }, ptr %21, i32 0, i32 1
  %66 = extractvalue { ptr, i64 } %63, 1
  store i64 %66, ptr %65, align 8, !noalias !4
  %67 = load ptr, ptr %20, align 8, !noalias !4
  %68 = call { i64, i64 } @_ZN3fmt2v916make_format_argsINS0_20basic_format_contextINS0_8appenderEcEEJRNS0_9join_viewIN9__gnu_cxx17__normal_iteratorIPKmSt6vectorImSaImEEEESD_cEEEEENS0_16format_arg_storeIT_JDpNSt9remove_cvINSt16remove_referenceIT0_E4typeEE4typeEEEEDpOSK_(ptr noundef nonnull align 8 dereferenceable(32) %67)
  %69 = extractvalue { i64, i64 } %68, 0
  store i64 %69, ptr %23, align 16, !noalias !4
  %70 = getelementptr inbounds { i64, i64 }, ptr %23, i32 0, i32 1
  %71 = extractvalue { i64, i64 } %68, 1
  store i64 %71, ptr %70, align 8, !noalias !4
  store ptr %22, ptr %8, align 8
  store ptr %23, ptr %9, align 8
  %72 = load ptr, ptr %8, align 8
  %73 = load ptr, ptr %9, align 8
  store ptr %73, ptr %7, align 8
  %74 = load ptr, ptr %7, align 8
  store ptr %72, ptr %4, align 8
  store i64 15, ptr %5, align 8
  store ptr %74, ptr %6, align 8
  %75 = load ptr, ptr %4, align 8
  %76 = load i64, ptr %5, align 8
  store i64 %76, ptr %75, align 8
  %77 = getelementptr inbounds %"class.fmt::v9::basic_format_args", ptr %75, i32 0, i32 1
  %78 = load ptr, ptr %6, align 8
  store ptr %78, ptr %77, align 8
  %79 = load ptr, ptr %21, align 8, !noalias !4
  %80 = getelementptr inbounds { ptr, i64 }, ptr %21, i32 0, i32 1
  %81 = load i64, ptr %80, align 8, !noalias !4
  %82 = load i64, ptr %22, align 8, !noalias !4
  %83 = getelementptr inbounds { i64, ptr }, ptr %22, i32 0, i32 1
  %84 = load ptr, ptr %83, align 8, !noalias !4
  call void @_ZN3fmt2v97vformatB5cxx11ENS0_17basic_string_viewIcEENS0_17basic_format_argsINS0_20basic_format_contextINS0_8appenderEcEEEE(ptr dead_on_unwind writable sret(%"class.std::__cxx11::basic_string") align 8 %27, ptr %79, i64 %81, i64 %82, ptr %84)
  %85 = invoke noundef nonnull align 8 dereferenceable(8) ptr @_ZStlsIcSt11char_traitsIcESaIcEERSt13basic_ostreamIT_T0_ES7_RKNSt7__cxx1112basic_stringIS4_S5_T1_EE(ptr noundef nonnull align 8 dereferenceable(8) %38, ptr noundef nonnull align 8 dereferenceable(32) %27)
          to label %86 unwind label %90

86:                                               ; preds = %2
  %87 = invoke noundef nonnull align 8 dereferenceable(8) ptr @_ZStlsISt11char_traitsIcEERSt13basic_ostreamIcT_ES5_c(ptr noundef nonnull align 8 dereferenceable(8) %85, i8 noundef signext 93)
          to label %88 unwind label %90

88:                                               ; preds = %86
  call void @_ZNSt7__cxx1112basic_stringIcSt11char_traitsIcESaIcEED1Ev(ptr noundef nonnull align 8 dereferenceable(32) %27) #16
  %89 = load ptr, ptr %25, align 8
  ret ptr %89

90:                                               ; preds = %86, %2
  %91 = landingpad { ptr, i32 }
          cleanup
  %92 = extractvalue { ptr, i32 } %91, 0
  store ptr %92, ptr %31, align 8
  %93 = extractvalue { ptr, i32 } %91, 1
  store i32 %93, ptr %32, align 4
  call void @_ZNSt7__cxx1112basic_stringIcSt11char_traitsIcESaIcEED1Ev(ptr noundef nonnull align 8 dereferenceable(32) %27) #16
  br label %94

94:                                               ; preds = %90
  %95 = load ptr, ptr %31, align 8
  %96 = load i32, ptr %32, align 4
  %97 = insertvalue { ptr, i32 } poison, ptr %95, 0
  %98 = insertvalue { ptr, i32 } %97, i32 %96, 1
  resume { ptr, i32 } %98
}