; Function Attrs: mustprogress uwtable
define noundef nonnull align 8 dereferenceable(8) ptr @_ZNK4LIEF3ELF17DynamicEntryArray5printERSo(ptr noundef nonnull align 8 dereferenceable(48) %0, ptr noundef nonnull returned align 8 dereferenceable(8) %1) unnamed_addr #4 align 2 personality ptr @__gxx_personality_v0 {
  %3 = alloca %"class.fmt::v9::format_arg_store.1076", align 16
  %4 = alloca %"class.std::__cxx11::basic_string", align 8
  %5 = alloca %"struct.fmt::v9::join_view", align 16
  %6 = getelementptr inbounds i8, ptr %0, i64 24
  %7 = tail call noundef nonnull align 8 dereferenceable(8) ptr @_ZNK4LIEF3ELF12DynamicEntry5printERSo(ptr noundef nonnull align 8 dereferenceable(24) %0, ptr noundef nonnull align 8 dereferenceable(8) %1)
  %8 = tail call noundef nonnull align 8 dereferenceable(8) ptr @_ZStlsISt11char_traitsIcEERSt13basic_ostreamIcT_ES5_c(ptr noundef nonnull align 8 dereferenceable(8) %1, i8 noundef signext 91)
  tail call void @llvm.experimental.noalias.scope.decl(metadata !7)
  %9 = load <2 x ptr>, ptr %6, align 8, !noalias !7
  store <2 x ptr> %9, ptr %5, align 16, !alias.scope !10
  %10 = getelementptr inbounds i8, ptr %5, i64 16
  store ptr @.str.3, ptr %10, align 16, !alias.scope !10
  %.sroa.2.0..sroa_idx.i.i.i = getelementptr inbounds i8, ptr %5, i64 24
  store i64 2, ptr %.sroa.2.0..sroa_idx.i.i.i, align 8, !alias.scope !10
  %11 = ptrtoint ptr %5 to i64
  store i64 %11, ptr %3, align 16, !noalias !13
  %12 = getelementptr inbounds i8, ptr %3, i64 8
  store i64 ptrtoint (ptr @_ZN3fmt2v96detail5valueINS0_20basic_format_contextINS0_8appenderEcEEE17format_custom_argINS0_9join_viewIN9__gnu_cxx17__normal_iteratorIPKmSt6vectorImSaImEEEESG_cEENS0_9formatterISH_cvEEEEvPvRNS0_26basic_format_parse_contextIcNS1_13error_handlerEEERS5_ to i64), ptr %12, align 8, !noalias !13
  call void @_ZN3fmt2v97vformatB5cxx11ENS0_17basic_string_viewIcEENS0_17basic_format_argsINS0_20basic_format_contextINS0_8appenderEcEEEE(ptr dead_on_unwind nonnull writable sret(%"class.std::__cxx11::basic_string") align 8 %4, ptr nonnull @.str.2, i64 8, i64 15, ptr nonnull %3)
  %13 = invoke noundef nonnull align 8 dereferenceable(8) ptr @_ZStlsIcSt11char_traitsIcESaIcEERSt13basic_ostreamIT_T0_ES7_RKNSt7__cxx1112basic_stringIS4_S5_T1_EE(ptr noundef nonnull align 8 dereferenceable(8) %8, ptr noundef nonnull align 8 dereferenceable(32) %4)
          to label %14 unwind label %17

14:                                               ; preds = %2
  %15 = invoke noundef nonnull align 8 dereferenceable(8) ptr @_ZStlsISt11char_traitsIcEERSt13basic_ostreamIcT_ES5_c(ptr noundef nonnull align 8 dereferenceable(8) %13, i8 noundef signext 93)
          to label %16 unwind label %17

16:                                               ; preds = %14
  call void @_ZNSt7__cxx1112basic_stringIcSt11char_traitsIcESaIcEED1Ev(ptr noundef nonnull align 8 dereferenceable(32) %4) #20
  ret ptr %1

17:                                               ; preds = %14, %2
  %18 = landingpad { ptr, i32 }
          cleanup
  call void @_ZNSt7__cxx1112basic_stringIcSt11char_traitsIcESaIcEED1Ev(ptr noundef nonnull align 8 dereferenceable(32) %4) #20
  resume { ptr, i32 } %18
}